target datalayout = "e-m:e-p270:32:32-p271:32:32-p272:64:64-i64:64-i128:128-f80:128-n8:16:32:64-S128"
target triple = "x86_64-unknown-linux-gnu"

%struct.redisServer = type { i32, i64, ptr, ptr, ptr, i32, i32, i32, i32, i32, ptr, ptr, ptr, ptr, ptr, ptr, i32, i32, i64, i32, i32, i32, i32, ptr, i32, i32, [41 x i8], i32, i64, i32, i32, i32, ptr, ptr, i32, i32, i64, ptr, ptr, ptr, ptr, [2 x i32], i32, i32, i32, i32, i32, [16 x ptr], i32, ptr, ptr, i32, [8 x %struct.connListener], i32, %struct.connListener, ptr, ptr, ptr, ptr, ptr, ptr, ptr, ptr, ptr, ptr, i32, ptr, i32, ptr, [3 x %struct.pause_event], [256 x i8], ptr, i64, i32, i32, i32, i32, i64, i32, i32, i32, i32, i32, i64, i64, i64, i64, i64, i64, i64, i64, i64, double, i64, i64, i64, i64, i64, i64, i64, i64, i64, i64, i64, i64, i64, i64, i64, i64, i64, i64, i64, i64, double, i64, i64, i64, i64, i64, ptr, i64, i64, i64, %struct.malloc_stats, i64, i64, i64, i64, i64, i64, i64, i64, i64, i64, i64, i64, double, [4 x i64], i64, i64, i64, i64, i64, i64, i64, i64, i64, i64, [7 x %struct.anon], i64, i64, i64, i64, i64, i64, [4 x %struct.durationStats], i32, i32, i32, i32, i32, i32, i32, i32, i32, i32, i64, i32, i32, i32, i32, i64, i64, i32, i32, i32, i32, i32, ptr, [3 x %struct.clientBufferLimitsConfig], i32, i32, ptr, i32, i32, i32, i32, ptr, ptr, i32, i32, i64, i64, i64, i64, i64, i32, i32, ptr, i32, i32, i64, i64, i64, i64, i64, i32, i32, i64, i32, i32, i32, i32, i32, i32, i32, i32, ptr, i32, i64, i64, i64, i64, ptr, i32, ptr, i32, i32, i32, i64, i64, i64, i64, i32, i32, i32, i32, i32, i32, ptr, i32, i32, ptr, i32, i32, i32, [2 x i32], i32, %struct.redisOpArray, i32, ptr, i32, ptr, i32, i32, i32, i32, i32, i32, i32, [41 x i8], [41 x i8], i64, i64, i64, i64, i32, i32, ptr, i64, i64, i64, i32, i32, i32, i32, i32, i32, i32, i64, ptr, ptr, ptr, ptr, i32, i32, ptr, ptr, i32, i32, i64, i64, i64, ptr, i32, ptr, i64, i32, i32, i32, i64, i32, i32, i32, i32, ptr, i32, i32, [41 x i8], i64, i32, ptr, i32, i32, i64, i64, i32, i32, i32, i32, i32, i64, [3 x i32], i32, i32, i32, [9 x i32], ptr, ptr, i32, i64, ptr, ptr, i32, i32, i32, i32, i64, i64, i64, i64, i64, i64, i64, i64, i64, i64, i32, i32, i64, i64, i32, i64, i64, i64, i64, i64, ptr, ptr, i32, ptr, i32, i32, i32, i64, i64, ptr, ptr, i32, i32, i32, i32, i32, ptr, ptr, ptr, i32, i32, i32, i32, i32, i32, i32, i64, i32, i64, i32, i32, i32, i32, i32, i32, i32, i64, ptr, ptr, i64, ptr, i32, %struct.aclInfo, i32, i64, i32, i32, i32, %struct.redisTLSContextConfig, ptr, ptr, ptr, ptr, ptr, i64, i32, ptr, i32, i32, i32, i64, i32, ptr }
%struct.connListener = type { [16 x i32], i32, ptr, i32, i32, ptr, ptr }
%struct.pause_event = type { i32, i64 }
%struct.malloc_stats = type { i64, i64, i64, i64, i64 }
%struct.anon = type { i64, i64, [16 x i64], i32 }
%struct.durationStats = type { i64, i64, i64 }
%struct.clientBufferLimitsConfig = type { i64, i64, i64 }
%struct.redisOpArray = type { ptr, i32, i32 }
%struct.aclInfo = type { i64, i64, i64, i64 }
%struct.redisTLSContextConfig = type { ptr, ptr, ptr, ptr, ptr, ptr, ptr, ptr, ptr, ptr, ptr, ptr, i32, i32, i32, i32 }
%struct.listNode = type { ptr, ptr, ptr }
%struct.replBacklog = type { ptr, i64, ptr, i64, i64 }
%struct.list = type { ptr, ptr, ptr, ptr, ptr, i64 }
%struct.replBufBlock = type { i32, i64, i64, i64, i64, [0 x i8] }

@server = external global %struct.redisServer, align 8
@.str.15 = private unnamed_addr constant [24 x i8] c"Latest backlog is: '%s'\00", align 1

; Function Attrs: nounwind uwtable
define dso_local void @showLatestBacklog() #0 {
entry:
  %dumplen = alloca i64, align 8
  %dump = alloca ptr, align 8
  %node = alloca ptr, align 8
  %o = alloca ptr, align 8
  %thislen = alloca i64, align 8
  %head = alloca ptr, align 8
  %tmp = alloca ptr, align 8
  %0 = load ptr, ptr getelementptr inbounds (%struct.redisServer, ptr @server, i32 0, i32 268), align 8
  %cmp = icmp eq ptr %0, null
  br i1 %cmp, label %if.then, label %if.end

if.then:                                          ; preds = %entry
  br label %return

if.end:                                           ; preds = %entry
  %1 = load ptr, ptr getelementptr inbounds (%struct.redisServer, ptr @server, i32 0, i32 280), align 8
  %len = getelementptr inbounds %struct.list, ptr %1, i32 0, i32 5
  %2 = load i64, ptr %len, align 8
  %cmp1 = icmp eq i64 %2, 0
  br i1 %cmp1, label %if.then2, label %if.end3

if.then2:                                         ; preds = %if.end
  br label %return

if.end3:                                          ; preds = %if.end
  store i64 256, ptr %dumplen, align 8
  %3 = load ptr, ptr getelementptr inbounds (%struct.redisServer, ptr @server, i32 0, i32 268), align 8
  %histlen = getelementptr inbounds %struct.replBacklog, ptr %3, i32 0, i32 3
  %4 = load i64, ptr %histlen, align 8
  %5 = load i64, ptr %dumplen, align 8
  %cmp4 = icmp slt i64 %4, %5
  br i1 %cmp4, label %if.then5, label %if.end7

if.then5:                                         ; preds = %if.end3
  %6 = load ptr, ptr getelementptr inbounds (%struct.redisServer, ptr @server, i32 0, i32 268), align 8
  %histlen6 = getelementptr inbounds %struct.replBacklog, ptr %6, i32 0, i32 3
  %7 = load i64, ptr %histlen6, align 8
  store i64 %7, ptr %dumplen, align 8
  br label %if.end7

if.end7:                                          ; preds = %if.then5, %if.end3
  %call = call ptr @sdsempty()
  store ptr %call, ptr %dump, align 8
  %8 = load ptr, ptr getelementptr inbounds (%struct.redisServer, ptr @server, i32 0, i32 280), align 8
  %tail = getelementptr inbounds %struct.list, ptr %8, i32 0, i32 1
  %9 = load ptr, ptr %tail, align 8
  store ptr %9, ptr %node, align 8
  br label %while.cond

while.cond:                                       ; preds = %cond.end, %if.end7
  %10 = load i64, ptr %dumplen, align 8
  %tobool = icmp ne i64 %10, 0
  br i1 %tobool, label %while.body, label %while.end

while.body:                                       ; preds = %while.cond
  %11 = load ptr, ptr %node, align 8
  %cmp8 = icmp eq ptr %11, null
  br i1 %cmp8, label %if.then9, label %if.end10

if.then9:                                         ; preds = %while.body
  br label %while.end

if.end10:                                         ; preds = %while.body
  %12 = load ptr, ptr %node, align 8
  %value = getelementptr inbounds %struct.listNode, ptr %12, i32 0, i32 2
  %13 = load ptr, ptr %value, align 8
  store ptr %13, ptr %o, align 8
  %14 = load ptr, ptr %o, align 8
  %used = getelementptr inbounds %struct.replBufBlock, ptr %14, i32 0, i32 4
  %15 = load i64, ptr %used, align 8
  %16 = load i64, ptr %dumplen, align 8
  %cmp11 = icmp uge i64 %15, %16
  br i1 %cmp11, label %cond.true, label %cond.false

cond.true:                                        ; preds = %if.end10
  %17 = load i64, ptr %dumplen, align 8
  br label %cond.end

cond.false:                                       ; preds = %if.end10
  %18 = load ptr, ptr %o, align 8
  %used12 = getelementptr inbounds %struct.replBufBlock, ptr %18, i32 0, i32 4
  %19 = load i64, ptr %used12, align 8
  br label %cond.end

cond.end:                                         ; preds = %cond.false, %cond.true
  %cond = phi i64 [ %17, %cond.true ], [ %19, %cond.false ]
  store i64 %cond, ptr %thislen, align 8
  %call13 = call ptr @sdsempty()
  %20 = load ptr, ptr %o, align 8
  %buf = getelementptr inbounds %struct.replBufBlock, ptr %20, i32 0, i32 5
  %arraydecay = getelementptr inbounds [0 x i8], ptr %buf, i64 0, i64 0
  %21 = load ptr, ptr %o, align 8
  %used14 = getelementptr inbounds %struct.replBufBlock, ptr %21, i32 0, i32 4
  %22 = load i64, ptr %used14, align 8
  %add.ptr = getelementptr inbounds i8, ptr %arraydecay, i64 %22
  %23 = load i64, ptr %thislen, align 8
  %idx.neg = sub i64 0, %23
  %add.ptr15 = getelementptr inbounds i8, ptr %add.ptr, i64 %idx.neg
  %24 = load i64, ptr %thislen, align 8
  %call16 = call ptr @sdscatrepr(ptr noundef %call13, ptr noundef %add.ptr15, i64 noundef %24)
  store ptr %call16, ptr %head, align 8
  %25 = load ptr, ptr %head, align 8
  %26 = load ptr, ptr %dump, align 8
  %call17 = call ptr @sdscatsds(ptr noundef %25, ptr noundef %26)
  store ptr %call17, ptr %tmp, align 8
  %27 = load ptr, ptr %dump, align 8
  call void @sdsfree(ptr noundef %27)
  %28 = load ptr, ptr %tmp, align 8
  store ptr %28, ptr %dump, align 8
  %29 = load i64, ptr %thislen, align 8
  %30 = load i64, ptr %dumplen, align 8
  %sub = sub i64 %30, %29
  store i64 %sub, ptr %dumplen, align 8
  %31 = load ptr, ptr %node, align 8
  %prev = getelementptr inbounds %struct.listNode, ptr %31, i32 0, i32 0
  %32 = load ptr, ptr %prev, align 8
  store ptr %32, ptr %node, align 8
  br label %while.cond, !llvm.loop !12

while.end:                                        ; preds = %if.then9, %while.cond
  br label %do.body

do.body:                                          ; preds = %while.end
  %33 = load i32, ptr getelementptr inbounds (%struct.redisServer, ptr @server, i32 0, i32 156), align 8
  %cmp18 = icmp slt i32 2, %33
  br i1 %cmp18, label %if.then19, label %if.end20

if.then19:                                        ; preds = %do.body
  br label %do.end

if.end20:                                         ; preds = %do.body
  %34 = load ptr, ptr %dump, align 8
  call void (i32, ptr, ...) @_serverLog(i32 noundef 2, ptr noundef @.str.15, ptr noundef %34)
  br label %do.end

do.end:                                           ; preds = %if.end20, %if.then19
  %35 = load ptr, ptr %dump, align 8
  call void @sdsfree(ptr noundef %35)
  br label %return

return:                                           ; preds = %do.end, %if.then2, %if.then
  ret void
}