; Function Attrs: nounwind uwtable
define dso_local void @showLatestBacklog() local_unnamed_addr #0 {
entry:
  %0 = load ptr, ptr getelementptr inbounds (%struct.redisServer, ptr @server, i64 0, i32 268), align 8
  %cmp = icmp eq ptr %0, null
  br i1 %cmp, label %return, label %if.end

if.end:                                           ; preds = %entry
  %1 = load ptr, ptr getelementptr inbounds (%struct.redisServer, ptr @server, i64 0, i32 280), align 8
  %len = getelementptr inbounds i8, ptr %1, i64 40
  %2 = load i64, ptr %len, align 8
  %cmp1 = icmp eq i64 %2, 0
  br i1 %cmp1, label %return, label %if.end3

if.end3:                                          ; preds = %if.end
  %histlen = getelementptr inbounds i8, ptr %0, i64 24
  %3 = load i64, ptr %histlen, align 8
  %call = tail call ptr @sdsempty() #21
  %4 = load ptr, ptr getelementptr inbounds (%struct.redisServer, ptr @server, i64 0, i32 280), align 8
  %tail = getelementptr inbounds i8, ptr %4, i64 8
  %node.017 = load ptr, ptr %tail, align 8
  %tobool18 = icmp eq i64 %3, 0
  %cmp819 = icmp eq ptr %node.017, null
  %or.cond20 = select i1 %tobool18, i1 true, i1 %cmp819
  br i1 %or.cond20, label %do.body, label %if.end10.preheader

if.end10.preheader:                               ; preds = %if.end3
  %spec.select = tail call i64 @llvm.smin.i64(i64 %3, i64 256)
  br label %if.end10

if.end10:                                         ; preds = %if.end10.preheader, %if.end10
  %node.023 = phi ptr [ %node.0, %if.end10 ], [ %node.017, %if.end10.preheader ]
  %dumplen.122 = phi i64 [ %sub, %if.end10 ], [ %spec.select, %if.end10.preheader ]
  %dump.021 = phi ptr [ %call17, %if.end10 ], [ %call, %if.end10.preheader ]
  %value = getelementptr inbounds i8, ptr %node.023, i64 16
  %5 = load ptr, ptr %value, align 8
  %used = getelementptr inbounds i8, ptr %5, i64 32
  %6 = load i64, ptr %used, align 8
  %.dumplen.1 = tail call i64 @llvm.umin.i64(i64 %6, i64 %dumplen.122)
  %call13 = tail call ptr @sdsempty() #21
  %buf = getelementptr inbounds i8, ptr %5, i64 40
  %7 = load i64, ptr %used, align 8
  %add.ptr = getelementptr inbounds i8, ptr %buf, i64 %7
  %idx.neg = sub i64 0, %.dumplen.1
  %add.ptr15 = getelementptr inbounds i8, ptr %add.ptr, i64 %idx.neg
  %call16 = tail call ptr @sdscatrepr(ptr noundef %call13, ptr noundef nonnull %add.ptr15, i64 noundef %.dumplen.1) #21
  %call17 = tail call ptr @sdscatsds(ptr noundef %call16, ptr noundef %dump.021) #21
  tail call void @sdsfree(ptr noundef %dump.021) #21
  %sub = sub i64 %dumplen.122, %.dumplen.1
  %node.0 = load ptr, ptr %node.023, align 8
  %tobool = icmp eq i64 %sub, 0
  %cmp8 = icmp eq ptr %node.0, null
  %or.cond = select i1 %tobool, i1 true, i1 %cmp8
  br i1 %or.cond, label %do.body, label %if.end10, !llvm.loop !11

do.body:                                          ; preds = %if.end10, %if.end3
  %dump.0.lcssa = phi ptr [ %call, %if.end3 ], [ %call17, %if.end10 ]
  %8 = load i32, ptr getelementptr inbounds (%struct.redisServer, ptr @server, i64 0, i32 156), align 8
  %cmp18 = icmp sgt i32 %8, 2
  br i1 %cmp18, label %do.end, label %if.end20

if.end20:                                         ; preds = %do.body
  tail call void (i32, ptr, ...) @_serverLog(i32 noundef 2, ptr noundef nonnull @.str.15, ptr noundef %dump.0.lcssa) #21
  br label %do.end

do.end:                                           ; preds = %do.body, %if.end20
  tail call void @sdsfree(ptr noundef %dump.0.lcssa) #21
  br label %return

return:                                           ; preds = %if.end, %entry, %do.end
  ret void
}